; ModuleID = '38/1690.c'
source_filename = "38/1690.c"
target datalayout = "e-m:e-p270:32:32-p271:32:32-p272:64:64-i64:64-f80:128-n8:16:32:64-S128"
target triple = "x86_64-pc-linux-gnu"

@.str = private unnamed_addr constant [4 x i8] c"%d\0A\00", align 1
@.str.1 = private unnamed_addr constant [4 x i8] c"%lf\00", align 1
@.str.2 = private unnamed_addr constant [6 x i8] c"%.5f\0A\00", align 1

; Function Attrs: noinline nounwind uwtable
define dso_local i32 @main() #0 {
  %1 = alloca i32, align 4
  %2 = alloca i32, align 4
  %3 = alloca i32, align 4
  %4 = alloca [100 x i32], align 16
  %5 = alloca i32, align 4
  %6 = alloca [100 x double*], align 16
  %7 = alloca double, align 8
  store i32 0, i32* %1, align 4
  %8 = call i32 (i8*, ...) @__isoc99_scanf(i8* getelementptr inbounds ([4 x i8], [4 x i8]* @.str, i64 0, i64 0), i32* %2)
  store i32 0, i32* %3, align 4
  br label %9

9:                                                ; preds = %50, %0
  %10 = load i32, i32* %3, align 4
  %11 = load i32, i32* %2, align 4
  %12 = icmp slt i32 %10, %11
  br i1 %12, label %13, label %53

13:                                               ; preds = %9
  %14 = load i32, i32* %3, align 4
  %15 = sext i32 %14 to i64
  %16 = getelementptr inbounds [100 x i32], [100 x i32]* %4, i64 0, i64 %15
  %17 = call i32 (i8*, ...) @__isoc99_scanf(i8* getelementptr inbounds ([4 x i8], [4 x i8]* @.str, i64 0, i64 0), i32* %16)
  store i32 0, i32* %5, align 4
  br label %18

18:                                               ; preds = %38, %13
  %19 = load i32, i32* %5, align 4
  %20 = load i32, i32* %3, align 4
  %21 = sext i32 %20 to i64
  %22 = getelementptr inbounds [100 x i32], [100 x i32]* %4, i64 0, i64 %21
  %23 = load i32, i32* %22, align 4
  %24 = icmp slt i32 %19, %23
  br i1 %24, label %25, label %41

25:                                               ; preds = %18
  %26 = call noalias i8* @malloc(i64 100) #3
  %27 = bitcast i8* %26 to double*
  %28 = getelementptr inbounds [100 x double*], [100 x double*]* %6, i64 0, i64 0
  %29 = load i32, i32* %5, align 4
  %30 = sext i32 %29 to i64
  %31 = getelementptr inbounds double*, double** %28, i64 %30
  store double* %27, double** %31, align 8
  %32 = getelementptr inbounds [100 x double*], [100 x double*]* %6, i64 0, i64 0
  %33 = load i32, i32* %5, align 4
  %34 = sext i32 %33 to i64
  %35 = getelementptr inbounds double*, double** %32, i64 %34
  %36 = load double*, double** %35, align 8
  %37 = call i32 (i8*, ...) @__isoc99_scanf(i8* getelementptr inbounds ([4 x i8], [4 x i8]* @.str.1, i64 0, i64 0), double* %36)
  br label %38

38:                                               ; preds = %25
  %39 = load i32, i32* %5, align 4
  %40 = add nsw i32 %39, 1
  store i32 %40, i32* %5, align 4
  br label %18

41:                                               ; preds = %18
  %42 = getelementptr inbounds [100 x double*], [100 x double*]* %6, i64 0, i64 0
  %43 = load i32, i32* %3, align 4
  %44 = sext i32 %43 to i64
  %45 = getelementptr inbounds [100 x i32], [100 x i32]* %4, i64 0, i64 %44
  %46 = load i32, i32* %45, align 4
  %47 = call double @fang(double** %42, i32 %46)
  store double %47, double* %7, align 8
  %48 = load double, double* %7, align 8
  %49 = call i32 (i8*, ...) @printf(i8* getelementptr inbounds ([6 x i8], [6 x i8]* @.str.2, i64 0, i64 0), double %48)
  br label %50

50:                                               ; preds = %41
  %51 = load i32, i32* %3, align 4
  %52 = add nsw i32 %51, 1
  store i32 %52, i32* %3, align 4
  br label %9

53:                                               ; preds = %9
  %54 = load i32, i32* %1, align 4
  ret i32 %54
}

declare dso_local i32 @__isoc99_scanf(i8*, ...) #1

; Function Attrs: nounwind
declare dso_local noalias i8* @malloc(i64) #2

; Function Attrs: noinline nounwind uwtable
define dso_local double @fang(double** %0, i32 %1) #0 {
  %3 = alloca double**, align 8
  %4 = alloca i32, align 4
  %5 = alloca double, align 8
  %6 = alloca double, align 8
  %7 = alloca double, align 8
  %8 = alloca double, align 8
  %9 = alloca i32, align 4
  store double** %0, double*** %3, align 8
  store i32 %1, i32* %4, align 4
  store i32 0, i32* %9, align 4
  store double 0.000000e+00, double* %5, align 8
  br label %10

10:                                               ; preds = %23, %2
  %11 = load i32, i32* %9, align 4
  %12 = load i32, i32* %4, align 4
  %13 = icmp slt i32 %11, %12
  br i1 %13, label %14, label %26

14:                                               ; preds = %10
  %15 = load double, double* %5, align 8
  %16 = load double**, double*** %3, align 8
  %17 = load i32, i32* %9, align 4
  %18 = sext i32 %17 to i64
  %19 = getelementptr inbounds double*, double** %16, i64 %18
  %20 = load double*, double** %19, align 8
  %21 = load double, double* %20, align 8
  %22 = fadd double %15, %21
  store double %22, double* %5, align 8
  br label %23

23:                                               ; preds = %14
  %24 = load i32, i32* %9, align 4
  %25 = add nsw i32 %24, 1
  store i32 %25, i32* %9, align 4
  br label %10

26:                                               ; preds = %10
  %27 = load double, double* %5, align 8
  %28 = load i32, i32* %4, align 4
  %29 = sitofp i32 %28 to double
  %30 = fdiv double %27, %29
  store double %30, double* %6, align 8
  store i32 0, i32* %9, align 4
  store double 0.000000e+00, double* %7, align 8
  br label %31

31:                                               ; preds = %55, %26
  %32 = load i32, i32* %9, align 4
  %33 = load i32, i32* %4, align 4
  %34 = icmp slt i32 %32, %33
  br i1 %34, label %35, label %58

35:                                               ; preds = %31
  %36 = load double, double* %7, align 8
  %37 = load double**, double*** %3, align 8
  %38 = load i32, i32* %9, align 4
  %39 = sext i32 %38 to i64
  %40 = getelementptr inbounds double*, double** %37, i64 %39
  %41 = load double*, double** %40, align 8
  %42 = load double, double* %41, align 8
  %43 = load double, double* %6, align 8
  %44 = fsub double %42, %43
  %45 = load double**, double*** %3, align 8
  %46 = load i32, i32* %9, align 4
  %47 = sext i32 %46 to i64
  %48 = getelementptr inbounds double*, double** %45, i64 %47
  %49 = load double*, double** %48, align 8
  %50 = load double, double* %49, align 8
  %51 = load double, double* %6, align 8
  %52 = fsub double %50, %51
  %53 = fmul double %44, %52
  %54 = fadd double %36, %53
  store double %54, double* %7, align 8
  br label %55

55:                                               ; preds = %35
  %56 = load i32, i32* %9, align 4
  %57 = add nsw i32 %56, 1
  store i32 %57, i32* %9, align 4
  br label %31

58:                                               ; preds = %31
  %59 = load double, double* %7, align 8
  %60 = load i32, i32* %4, align 4
  %61 = sitofp i32 %60 to double
  %62 = fdiv double %59, %61
  %63 = call double @sqrt(double %62) #3
  store double %63, double* %8, align 8
  %64 = load double, double* %8, align 8
  ret double %64
}

declare dso_local i32 @printf(i8*, ...) #1

; Function Attrs: nounwind
declare dso_local double @sqrt(double) #2


!llvm.module.flags = !{!0}
!llvm.ident = !{!1}

!0 = !{i32 1, !"wchar_size", i32 4}
!1 = !{!"clang version 10.0.0-4ubuntu1 "}
